target datalayout = "e-m:e-p270:32:32-p271:32:32-p272:64:64-i64:64-i128:128-f80:128-n8:16:32:64-S128"
target triple = "x86_64-unknown-linux-gnu"

@.str = private unnamed_addr constant [35 x i8] c"../qemu/hw/core/machine-qmp-cmds.c\00", align 1
@__func__.qmp_system_wakeup = private unnamed_addr constant [18 x i8] c"qmp_system_wakeup\00", align 1
@.str.13 = private unnamed_addr constant [52 x i8] c"wake-up from suspend is not supported by this guest\00", align 1

; Function Attrs: nounwind sspstrong uwtable
define dso_local void @qmp_system_wakeup(ptr noundef %errp) #0 {
entry:
  %errp.addr = alloca ptr, align 8
  store ptr %errp, ptr %errp.addr, align 8
  %call = call zeroext i1 @qemu_wakeup_suspend_enabled()
  br i1 %call, label %if.end, label %if.then

if.then:                                          ; preds = %entry
  %0 = load ptr, ptr %errp.addr, align 8
  call void (ptr, ptr, i32, ptr, ptr, ...) @error_setg_internal(ptr noundef %0, ptr noundef @.str, i32 noundef 269, ptr noundef @__func__.qmp_system_wakeup, ptr noundef @.str.13)
  br label %return

if.end:                                           ; preds = %entry
  %1 = load ptr, ptr %errp.addr, align 8
  call void @qemu_system_wakeup_request(i32 noundef 3, ptr noundef %1)
  br label %return

return:                                           ; preds = %if.end, %if.then
  ret void
}