; Function Attrs: nounwind sspstrong uwtable
define dso_local void @qmp_system_wakeup(ptr noundef %errp) local_unnamed_addr #0 {
entry:
  %call = tail call zeroext i1 @qemu_wakeup_suspend_enabled() #7
  br i1 %call, label %if.end, label %if.then

if.then:                                          ; preds = %entry
  tail call void (ptr, ptr, i32, ptr, ptr, ...) @error_setg_internal(ptr noundef %errp, ptr noundef nonnull @.str, i32 noundef 269, ptr noundef nonnull @__func__.qmp_system_wakeup, ptr noundef nonnull @.str.13) #7
  br label %return

if.end:                                           ; preds = %entry
  tail call void @qemu_system_wakeup_request(i32 noundef 3, ptr noundef %errp) #7
  br label %return

return:                                           ; preds = %if.end, %if.then
  ret void
}